target datalayout = "e-m:e-p270:32:32-p271:32:32-p272:64:64-i64:64-i128:128-f80:128-n8:16:32:64-S128"
target triple = "x86_64-pc-linux-gnu"

%struct.__va_list_tag = type { i32, i32, ptr, ptr }

; Function Attrs: mustprogress uwtable
define dso_local void @_ZN4Luau13vformatAppendERNSt7__cxx1112basic_stringIcSt11char_traitsIcESaIcEEEPKcP13__va_list_tag(ptr noundef nonnull align 8 dereferenceable(32) %0, ptr noundef %1, ptr noundef %2) #0 {
  %4 = alloca ptr, align 8
  %5 = alloca ptr, align 8
  %6 = alloca ptr, align 8
  %7 = alloca [1 x %struct.__va_list_tag], align 16
  %8 = alloca i32, align 4
  %9 = alloca i64, align 8
  store ptr %0, ptr %4, align 8
  store ptr %1, ptr %5, align 8
  store ptr %2, ptr %6, align 8
  %10 = getelementptr inbounds [1 x %struct.__va_list_tag], ptr %7, i64 0, i64 0
  %11 = load ptr, ptr %6, align 8
  call void @llvm.va_copy.p0(ptr %10, ptr %11)
  %12 = load ptr, ptr %5, align 8
  %13 = getelementptr inbounds [1 x %struct.__va_list_tag], ptr %7, i64 0, i64 0
  %14 = call i32 @vsnprintf(ptr noundef null, i64 noundef 0, ptr noundef %12, ptr noundef %13) #12
  store i32 %14, ptr %8, align 4
  %15 = getelementptr inbounds [1 x %struct.__va_list_tag], ptr %7, i64 0, i64 0
  call void @llvm.va_end.p0(ptr %15)
  %16 = load i32, ptr %8, align 4
  %17 = icmp sle i32 %16, 0
  br i1 %17, label %18, label %19

18:                                               ; preds = %3
  br label %37

19:                                               ; preds = %3
  %20 = load ptr, ptr %4, align 8
  %21 = call noundef i64 @_ZNKSt7__cxx1112basic_stringIcSt11char_traitsIcESaIcEE4sizeEv(ptr noundef nonnull align 8 dereferenceable(32) %20) #12
  store i64 %21, ptr %9, align 8
  %22 = load ptr, ptr %4, align 8
  %23 = load i64, ptr %9, align 8
  %24 = load i32, ptr %8, align 4
  %25 = sext i32 %24 to i64
  %26 = add i64 %23, %25
  call void @_ZNSt7__cxx1112basic_stringIcSt11char_traitsIcESaIcEE6resizeEm(ptr noundef nonnull align 8 dereferenceable(32) %22, i64 noundef %26)
  %27 = load ptr, ptr %4, align 8
  %28 = call noundef nonnull align 1 dereferenceable(1) ptr @_ZNSt7__cxx1112basic_stringIcSt11char_traitsIcESaIcEEixEm(ptr noundef nonnull align 8 dereferenceable(32) %27, i64 noundef 0)
  %29 = load i64, ptr %9, align 8
  %30 = getelementptr inbounds i8, ptr %28, i64 %29
  %31 = load i32, ptr %8, align 4
  %32 = add nsw i32 %31, 1
  %33 = sext i32 %32 to i64
  %34 = load ptr, ptr %5, align 8
  %35 = load ptr, ptr %6, align 8
  %36 = call i32 @vsnprintf(ptr noundef %30, i64 noundef %33, ptr noundef %34, ptr noundef %35) #12
  br label %37

37:                                               ; preds = %19, %18
  ret void
}