; Function Attrs: mustprogress uwtable
define dso_local void @_ZN4Luau13vformatAppendERNSt7__cxx1112basic_stringIcSt11char_traitsIcESaIcEEEPKcP13__va_list_tag(ptr noundef nonnull align 8 dereferenceable(32) %0, ptr nocapture noundef readonly %1, ptr noundef %2) local_unnamed_addr #0 {
  %4 = alloca [1 x %struct.__va_list_tag], align 16
  call void @llvm.va_copy.p0(ptr nonnull %4, ptr %2)
  %5 = call i32 @vsnprintf(ptr noundef null, i64 noundef 0, ptr noundef %1, ptr noundef nonnull %4) #20
  call void @llvm.va_end.p0(ptr nonnull %4)
  %6 = icmp slt i32 %5, 1
  br i1 %6, label %16, label %7

7:                                                ; preds = %3
  %8 = call noundef i64 @_ZNKSt7__cxx1112basic_stringIcSt11char_traitsIcESaIcEE4sizeEv(ptr noundef nonnull align 8 dereferenceable(32) %0) #20
  %9 = zext nneg i32 %5 to i64
  %10 = add i64 %8, %9
  call void @_ZNSt7__cxx1112basic_stringIcSt11char_traitsIcESaIcEE6resizeEm(ptr noundef nonnull align 8 dereferenceable(32) %0, i64 noundef %10)
  %11 = call noundef nonnull align 1 dereferenceable(1) ptr @_ZNSt7__cxx1112basic_stringIcSt11char_traitsIcESaIcEEixEm(ptr noundef nonnull align 8 dereferenceable(32) %0, i64 noundef 0)
  %12 = getelementptr inbounds i8, ptr %11, i64 %8
  %13 = add nuw nsw i32 %5, 1
  %14 = zext nneg i32 %13 to i64
  %15 = call i32 @vsnprintf(ptr noundef nonnull %12, i64 noundef %14, ptr noundef %1, ptr noundef %2) #20
  br label %16

16:                                               ; preds = %3, %7
  ret void
}